; Function Attrs: mustprogress uwtable
define noundef i32 @proj_errno_restore(ptr noundef %0, i32 noundef %1) local_unnamed_addr #1 {
  %3 = icmp eq i32 %1, 0
  br i1 %3, label %6, label %proj_errno_set.exit

proj_errno_set.exit:                              ; preds = %2
  %4 = tail call noundef ptr @_Z10pj_get_ctxP8PJconsts(ptr noundef %0)
  tail call void @_Z22proj_context_errno_setP6pj_ctxi(ptr noundef %4, i32 noundef %1)
  %5 = tail call ptr @__errno_location() #34
  store i32 %1, ptr %5, align 4
  br label %6

6:                                                ; preds = %2, %proj_errno_set.exit
  ret i32 0
}